target datalayout = "e-m:e-p270:32:32-p271:32:32-p272:64:64-i64:64-i128:128-f80:128-n8:16:32:64-S128"
target triple = "x86_64-pc-linux-gnu"

%struct.asn1_string_st = type { i32, i32, ptr, i64 }

@.str = private unnamed_addr constant [68 x i8] c"../openssl/providers/implementations/encode_decode/encode_key2any.c\00", align 1
@__func__.prepare_ec_params = private unnamed_addr constant [18 x i8] c"prepare_ec_params\00", align 1
@__func__.prepare_ec_explicit_params = private unnamed_addr constant [27 x i8] c"prepare_ec_explicit_params\00", align 1

; Function Attrs: nounwind uwtable
define internal i32 @prepare_ec_explicit_params(ptr noundef %0, ptr noundef %1, ptr noundef %2) #0 {
  %4 = alloca i32, align 4
  %5 = alloca ptr, align 8
  %6 = alloca ptr, align 8
  %7 = alloca ptr, align 8
  %8 = alloca ptr, align 8
  %9 = alloca i32, align 4
  store ptr %0, ptr %5, align 8, !tbaa !3
  store ptr %1, ptr %6, align 8, !tbaa !3
  store ptr %2, ptr %7, align 8, !tbaa !33
  call void @llvm.lifetime.start.p0(i64 8, ptr %8) #4
  %10 = call ptr @ASN1_STRING_new()
  store ptr %10, ptr %8, align 8, !tbaa !37
  %11 = load ptr, ptr %8, align 8, !tbaa !37
  %12 = icmp eq ptr %11, null
  br i1 %12, label %13, label %14

13:                                               ; preds = %3
  call void @ERR_new()
  call void @ERR_set_debug(ptr noundef @.str, i32 noundef 672, ptr noundef @__func__.prepare_ec_explicit_params)
  call void (i32, i32, ptr, ...) @ERR_set_error(i32 noundef 57, i32 noundef 524301, ptr noundef null)
  store i32 0, ptr %4, align 4
  store i32 1, ptr %9, align 4
  br label %31

14:                                               ; preds = %3
  %15 = load ptr, ptr %5, align 8, !tbaa !3
  %16 = load ptr, ptr %8, align 8, !tbaa !37
  %17 = getelementptr inbounds nuw %struct.asn1_string_st, ptr %16, i32 0, i32 2
  %18 = call i32 @i2d_ECParameters(ptr noundef %15, ptr noundef %17)
  %19 = load ptr, ptr %8, align 8, !tbaa !37
  %20 = getelementptr inbounds nuw %struct.asn1_string_st, ptr %19, i32 0, i32 0
  store i32 %18, ptr %20, align 8, !tbaa !44
  %21 = load ptr, ptr %8, align 8, !tbaa !37
  %22 = getelementptr inbounds nuw %struct.asn1_string_st, ptr %21, i32 0, i32 0
  %23 = load i32, ptr %22, align 8, !tbaa !44
  %24 = icmp sle i32 %23, 0
  br i1 %24, label %25, label %27

25:                                               ; preds = %14
  call void @ERR_new()
  call void @ERR_set_debug(ptr noundef @.str, i32 noundef 678, ptr noundef @__func__.prepare_ec_explicit_params)
  call void (i32, i32, ptr, ...) @ERR_set_error(i32 noundef 57, i32 noundef 524301, ptr noundef null)
  %26 = load ptr, ptr %8, align 8, !tbaa !37
  call void @ASN1_STRING_free(ptr noundef %26)
  store i32 0, ptr %4, align 4
  store i32 1, ptr %9, align 4
  br label %31

27:                                               ; preds = %14
  %28 = load ptr, ptr %7, align 8, !tbaa !33
  store i32 16, ptr %28, align 4, !tbaa !25
  %29 = load ptr, ptr %8, align 8, !tbaa !37
  %30 = load ptr, ptr %6, align 8, !tbaa !3
  store ptr %29, ptr %30, align 8, !tbaa !3
  store i32 1, ptr %4, align 4
  store i32 1, ptr %9, align 4
  br label %31

31:                                               ; preds = %27, %25, %13
  call void @llvm.lifetime.end.p0(i64 8, ptr %8) #4
  %32 = load i32, ptr %4, align 4
  ret i32 %32
}

; Function Attrs: nounwind uwtable
define internal i32 @prepare_ec_params(ptr noundef %0, i32 noundef %1, i32 noundef %2, ptr noundef %3, ptr noundef %4) #0 {
  %6 = alloca i32, align 4
  %7 = alloca ptr, align 8
  %8 = alloca i32, align 4
  %9 = alloca i32, align 4
  %10 = alloca ptr, align 8
  %11 = alloca ptr, align 8
  %12 = alloca i32, align 4
  %13 = alloca ptr, align 8
  %14 = alloca ptr, align 8
  %15 = alloca i32, align 4
  store ptr %0, ptr %7, align 8, !tbaa !3
  store i32 %1, ptr %8, align 4, !tbaa !25
  store i32 %2, ptr %9, align 4, !tbaa !25
  store ptr %3, ptr %10, align 8, !tbaa !3
  store ptr %4, ptr %11, align 8, !tbaa !33
  call void @llvm.lifetime.start.p0(i64 4, ptr %12) #4
  call void @llvm.lifetime.start.p0(i64 8, ptr %13) #4
  %16 = load ptr, ptr %7, align 8, !tbaa !3
  %17 = call ptr @EC_KEY_get0_group(ptr noundef %16)
  store ptr %17, ptr %13, align 8, !tbaa !46
  call void @llvm.lifetime.start.p0(i64 8, ptr %14) #4
  store ptr null, ptr %14, align 8, !tbaa !48
  %18 = load ptr, ptr %13, align 8, !tbaa !46
  %19 = icmp eq ptr %18, null
  br i1 %19, label %20, label %21

20:                                               ; preds = %5
  store i32 0, ptr %6, align 4
  store i32 1, ptr %15, align 4
  br label %56

21:                                               ; preds = %5
  %22 = load ptr, ptr %13, align 8, !tbaa !46
  %23 = call i32 @EC_GROUP_get_curve_name(ptr noundef %22)
  store i32 %23, ptr %12, align 4, !tbaa !25
  %24 = load i32, ptr %12, align 4, !tbaa !25
  %25 = icmp ne i32 %24, 0
  br i1 %25, label %26, label %33

26:                                               ; preds = %21
  %27 = load i32, ptr %12, align 4, !tbaa !25
  %28 = call ptr @OBJ_nid2obj(i32 noundef %27)
  store ptr %28, ptr %14, align 8, !tbaa !48
  %29 = load ptr, ptr %14, align 8, !tbaa !48
  %30 = icmp eq ptr %29, null
  br i1 %30, label %31, label %32

31:                                               ; preds = %26
  store i32 0, ptr %6, align 4
  store i32 1, ptr %15, align 4
  br label %56

32:                                               ; preds = %26
  br label %33

33:                                               ; preds = %32, %21
  %34 = load i32, ptr %12, align 4, !tbaa !25
  %35 = icmp ne i32 %34, 0
  br i1 %35, label %36, label %51

36:                                               ; preds = %33
  %37 = load ptr, ptr %13, align 8, !tbaa !46
  %38 = call i32 @EC_GROUP_get_asn1_flag(ptr noundef %37)
  %39 = and i32 %38, 1
  %40 = icmp ne i32 %39, 0
  br i1 %40, label %41, label %51

41:                                               ; preds = %36
  %42 = load ptr, ptr %14, align 8, !tbaa !48
  %43 = call i64 @OBJ_length(ptr noundef %42)
  %44 = icmp eq i64 %43, 0
  br i1 %44, label %45, label %47

45:                                               ; preds = %41
  call void @ERR_new()
  call void @ERR_set_debug(ptr noundef @.str, i32 noundef 713, ptr noundef @__func__.prepare_ec_params)
  call void (i32, i32, ptr, ...) @ERR_set_error(i32 noundef 57, i32 noundef 209, ptr noundef null)
  %46 = load ptr, ptr %14, align 8, !tbaa !48
  call void @ASN1_OBJECT_free(ptr noundef %46)
  store i32 0, ptr %6, align 4
  store i32 1, ptr %15, align 4
  br label %56

47:                                               ; preds = %41
  %48 = load ptr, ptr %14, align 8, !tbaa !48
  %49 = load ptr, ptr %10, align 8, !tbaa !3
  store ptr %48, ptr %49, align 8, !tbaa !3
  %50 = load ptr, ptr %11, align 8, !tbaa !33
  store i32 6, ptr %50, align 4, !tbaa !25
  store i32 1, ptr %6, align 4
  store i32 1, ptr %15, align 4
  br label %56

51:                                               ; preds = %36, %33
  %52 = load ptr, ptr %7, align 8, !tbaa !3
  %53 = load ptr, ptr %10, align 8, !tbaa !3
  %54 = load ptr, ptr %11, align 8, !tbaa !33
  %55 = call i32 @prepare_ec_explicit_params(ptr noundef %52, ptr noundef %53, ptr noundef %54)
  store i32 %55, ptr %6, align 4
  store i32 1, ptr %15, align 4
  br label %56

56:                                               ; preds = %51, %47, %45, %31, %20
  call void @llvm.lifetime.end.p0(i64 8, ptr %14) #4
  call void @llvm.lifetime.end.p0(i64 8, ptr %13) #4
  call void @llvm.lifetime.end.p0(i64 4, ptr %12) #4
  %57 = load i32, ptr %6, align 4
  ret i32 %57
}