; Function Attrs: nounwind uwtable
define internal range(i32 0, 2) i32 @prepare_ec_params(ptr noundef %0, i32 %1, i32 %2, ptr noundef writeonly captures(none) %3, ptr noundef writeonly captures(none) %4) #0 {
  %6 = tail call ptr @EC_KEY_get0_group(ptr noundef %0) #5
  %7 = icmp eq ptr %6, null
  br i1 %7, label %prepare_ec_explicit_params.exit, label %8

8:                                                ; preds = %5
  %9 = tail call i32 @EC_GROUP_get_curve_name(ptr noundef nonnull %6) #5
  %.not = icmp eq i32 %9, 0
  br i1 %.not, label %.thread, label %10

10:                                               ; preds = %8
  %11 = tail call ptr @OBJ_nid2obj(i32 noundef %9) #5
  %12 = icmp eq ptr %11, null
  br i1 %12, label %prepare_ec_explicit_params.exit, label %13

13:                                               ; preds = %10
  %14 = tail call i32 @EC_GROUP_get_asn1_flag(ptr noundef nonnull %6) #5
  %15 = and i32 %14, 1
  %.not20 = icmp eq i32 %15, 0
  br i1 %.not20, label %.thread, label %16

16:                                               ; preds = %13
  %17 = tail call i64 @OBJ_length(ptr noundef nonnull %11) #5
  %18 = icmp eq i64 %17, 0
  br i1 %18, label %19, label %20

19:                                               ; preds = %16
  tail call void @ERR_new() #5
  tail call void @ERR_set_debug(ptr noundef nonnull @.str, i32 noundef 713, ptr noundef nonnull @__func__.prepare_ec_params) #5
  tail call void (i32, i32, ptr, ...) @ERR_set_error(i32 noundef 57, i32 noundef 209, ptr noundef null) #5
  tail call void @ASN1_OBJECT_free(ptr noundef nonnull %11) #5
  br label %prepare_ec_explicit_params.exit

20:                                               ; preds = %16
  store ptr %11, ptr %3, align 8, !tbaa !21
  store i32 6, ptr %4, align 4, !tbaa !20
  br label %prepare_ec_explicit_params.exit

.thread:                                          ; preds = %8, %13
  %21 = tail call ptr @ASN1_STRING_new() #5
  %22 = icmp eq ptr %21, null
  br i1 %22, label %23, label %24

23:                                               ; preds = %.thread
  tail call void @ERR_new() #5
  tail call void @ERR_set_debug(ptr noundef nonnull @.str, i32 noundef 672, ptr noundef nonnull @__func__.prepare_ec_explicit_params) #5
  tail call void (i32, i32, ptr, ...) @ERR_set_error(i32 noundef 57, i32 noundef 524301, ptr noundef null) #5
  br label %prepare_ec_explicit_params.exit

24:                                               ; preds = %.thread
  %25 = getelementptr inbounds nuw i8, ptr %21, i64 8
  %26 = tail call i32 @i2d_ECParameters(ptr noundef %0, ptr noundef nonnull %25) #5
  store i32 %26, ptr %21, align 8, !tbaa !25
  %27 = icmp slt i32 %26, 1
  br i1 %27, label %28, label %29

28:                                               ; preds = %24
  tail call void @ERR_new() #5
  tail call void @ERR_set_debug(ptr noundef nonnull @.str, i32 noundef 678, ptr noundef nonnull @__func__.prepare_ec_explicit_params) #5
  tail call void (i32, i32, ptr, ...) @ERR_set_error(i32 noundef 57, i32 noundef 524301, ptr noundef null) #5
  tail call void @ASN1_STRING_free(ptr noundef nonnull %21) #5
  br label %prepare_ec_explicit_params.exit

29:                                               ; preds = %24
  store i32 16, ptr %4, align 4, !tbaa !20
  store ptr %21, ptr %3, align 8, !tbaa !21
  br label %prepare_ec_explicit_params.exit

prepare_ec_explicit_params.exit:                  ; preds = %29, %28, %23, %10, %5, %20, %19
  %.016 = phi i32 [ 0, %19 ], [ 1, %20 ], [ 0, %5 ], [ 0, %10 ], [ 0, %23 ], [ 0, %28 ], [ 1, %29 ]
  ret i32 %.016
}